; Function Attrs: null_pointer_is_valid sspstrong uwtable
define internal void @skinny_calls_draw(ptr noundef %0) #0 {
  %2 = ptrtoint ptr %0 to i64
  %3 = add i64 %2, -16
  %4 = inttoptr i64 %3 to ptr
  %5 = getelementptr inbounds nuw i8, ptr %4, i64 16
  %6 = load ptr, ptr %5, align 8
  %.not = icmp eq ptr %6, null
  br i1 %.not, label %14, label %7

7:                                                ; preds = %1
  %8 = getelementptr inbounds nuw i8, ptr %4, i64 232
  %9 = load i32, ptr %8, align 8
  %10 = and i32 %9, 65536
  %.not6 = icmp eq i32 %10, 0
  br i1 %.not6, label %14, label %11

11:                                               ; preds = %7
  tail call void %6(ptr noundef %4)
  %12 = load i32, ptr %8, align 8
  %13 = and i32 %12, -65537
  store i32 %13, ptr %8, align 8
  br label %14

14:                                               ; preds = %11, %7, %1
  ret void
}